; Function Attrs: nounwind uwtable
define range(i32 -23, 1) i32 @IDASVtolerances(ptr noundef captures(address_is_null) %0, double noundef %1, ptr noundef %2) local_unnamed_addr #0 {
  %4 = icmp eq ptr %0, null
  br i1 %4, label %5, label %6

5:                                                ; preds = %3
  tail call void (ptr, i32, i32, ptr, ptr, ptr, ...) @IDAProcessError(ptr noundef null, i32 noundef -20, i32 noundef 938, ptr noundef nonnull @__func__.IDASVtolerances, ptr noundef nonnull @.str, ptr noundef nonnull @.str.3)
  br label %46

6:                                                ; preds = %3
  %7 = getelementptr inbounds nuw i8, ptr %0, i64 1696
  %8 = load i32, ptr %7, align 8, !tbaa !140
  %9 = icmp eq i32 %8, 0
  br i1 %9, label %10, label %11

10:                                               ; preds = %6
  tail call void (ptr, i32, i32, ptr, ptr, ptr, ...) @IDAProcessError(ptr noundef nonnull %0, i32 noundef -23, i32 noundef 945, ptr noundef nonnull @__func__.IDASVtolerances, ptr noundef nonnull @.str, ptr noundef nonnull @.str.9)
  br label %46

11:                                               ; preds = %6
  %12 = fcmp olt double %1, 0.000000e+00
  br i1 %12, label %13, label %14

13:                                               ; preds = %11
  tail call void (ptr, i32, i32, ptr, ptr, ptr, ...) @IDAProcessError(ptr noundef nonnull %0, i32 noundef -22, i32 noundef 954, ptr noundef nonnull @__func__.IDASVtolerances, ptr noundef nonnull @.str, ptr noundef nonnull @.str.10)
  br label %46

14:                                               ; preds = %11
  %15 = tail call double @N_VMin(ptr noundef %2) #14
  %16 = fcmp olt double %15, 0.000000e+00
  br i1 %16, label %17, label %18

17:                                               ; preds = %14
  tail call void (ptr, i32, i32, ptr, ptr, ptr, ...) @IDAProcessError(ptr noundef nonnull %0, i32 noundef -22, i32 noundef 962, ptr noundef nonnull @__func__.IDASVtolerances, ptr noundef nonnull @.str, ptr noundef nonnull @.str.11)
  br label %46

18:                                               ; preds = %14
  %19 = getelementptr inbounds nuw i8, ptr %0, i64 1684
  %20 = load i32, ptr %19, align 4, !tbaa !141
  %.not = icmp eq i32 %20, 0
  br i1 %.not, label %21, label %._crit_edge

._crit_edge:                                      ; preds = %18
  %.phi.trans.insert = getelementptr inbounds nuw i8, ptr %0, i64 56
  %.pre = load ptr, ptr %.phi.trans.insert, align 8, !tbaa !142
  br label %36

21:                                               ; preds = %18
  %22 = getelementptr inbounds nuw i8, ptr %0, i64 632
  %23 = load ptr, ptr %22, align 8, !tbaa !90
  %24 = tail call ptr @N_VClone(ptr noundef %23) #14
  %25 = getelementptr inbounds nuw i8, ptr %0, i64 56
  store ptr %24, ptr %25, align 8, !tbaa !142
  %26 = getelementptr inbounds nuw i8, ptr %0, i64 1624
  %27 = load i64, ptr %26, align 8, !tbaa !112
  %28 = getelementptr inbounds nuw i8, ptr %0, i64 1656
  %29 = load i64, ptr %28, align 8, !tbaa !64
  %30 = add nsw i64 %29, %27
  store i64 %30, ptr %28, align 8, !tbaa !64
  %31 = getelementptr inbounds nuw i8, ptr %0, i64 1632
  %32 = load i64, ptr %31, align 8, !tbaa !113
  %33 = getelementptr inbounds nuw i8, ptr %0, i64 1664
  %34 = load i64, ptr %33, align 8, !tbaa !65
  %35 = add nsw i64 %34, %32
  store i64 %35, ptr %33, align 8, !tbaa !65
  store i32 1, ptr %19, align 4, !tbaa !141
  br label %36

36:                                               ; preds = %._crit_edge, %21
  %37 = phi ptr [ %.pre, %._crit_edge ], [ %24, %21 ]
  %38 = getelementptr inbounds nuw i8, ptr %0, i64 40
  store double %1, ptr %38, align 8, !tbaa !84
  tail call void @N_VScale(double noundef 1.000000e+00, ptr noundef %2, ptr noundef %37) #14
  %39 = fcmp oeq double %15, 0.000000e+00
  %40 = zext i1 %39 to i32
  %41 = getelementptr inbounds nuw i8, ptr %0, i64 64
  store i32 %40, ptr %41, align 8, !tbaa !19
  %42 = getelementptr inbounds nuw i8, ptr %0, i64 32
  store i32 2, ptr %42, align 8, !tbaa !150
  %43 = getelementptr inbounds nuw i8, ptr %0, i64 68
  store i32 0, ptr %43, align 4, !tbaa !151
  %44 = getelementptr inbounds nuw i8, ptr %0, i64 72
  store ptr @IDAEwtSet, ptr %44, align 8, !tbaa !152
  %45 = getelementptr inbounds nuw i8, ptr %0, i64 80
  store ptr null, ptr %45, align 8, !tbaa !153
  br label %46

46:                                               ; preds = %36, %17, %13, %10, %5
  %.0 = phi i32 [ -20, %5 ], [ -23, %10 ], [ -22, %13 ], [ -22, %17 ], [ 0, %36 ]
  ret i32 %.0
}